target datalayout = "e-m:e-p270:32:32-p271:32:32-p272:64:64-i64:64-i128:128-f80:128-n8:16:32:64-S128"
target triple = "x86_64-pc-linux-gnu"

; Function Attrs: nounwind uwtable
define void @orthog1f(i32 noundef %0, ptr noundef %1) #0 {
  %3 = alloca i32, align 4
  %4 = alloca ptr, align 8
  %5 = alloca i32, align 4
  %6 = alloca ptr, align 8
  %7 = alloca float, align 4
  store i32 %0, ptr %3, align 4, !tbaa !8
  store ptr %1, ptr %4, align 8, !tbaa !40
  call void @llvm.lifetime.start.p0(i64 4, ptr %5) #8
  call void @llvm.lifetime.start.p0(i64 8, ptr %6) #8
  call void @llvm.lifetime.start.p0(i64 4, ptr %7) #8
  store float 0.000000e+00, ptr %7, align 4, !tbaa !43
  %8 = load ptr, ptr %4, align 8, !tbaa !40
  store ptr %8, ptr %6, align 8, !tbaa !40
  %9 = load i32, ptr %3, align 4, !tbaa !8
  store i32 %9, ptr %5, align 4, !tbaa !8
  br label %10

10:                                               ; preds = %19, %2
  %11 = load i32, ptr %5, align 4, !tbaa !8
  %12 = icmp ne i32 %11, 0
  br i1 %12, label %13, label %22

13:                                               ; preds = %10
  %14 = load ptr, ptr %6, align 8, !tbaa !40
  %15 = getelementptr inbounds nuw float, ptr %14, i32 1
  store ptr %15, ptr %6, align 8, !tbaa !40
  %16 = load float, ptr %14, align 4, !tbaa !43
  %17 = load float, ptr %7, align 4, !tbaa !43
  %18 = fadd float %17, %16
  store float %18, ptr %7, align 4, !tbaa !43
  br label %19

19:                                               ; preds = %13
  %20 = load i32, ptr %5, align 4, !tbaa !8
  %21 = add nsw i32 %20, -1
  store i32 %21, ptr %5, align 4, !tbaa !8
  br label %10, !llvm.loop !76

22:                                               ; preds = %10
  %23 = load i32, ptr %3, align 4, !tbaa !8
  %24 = sitofp i32 %23 to float
  %25 = load float, ptr %7, align 4, !tbaa !43
  %26 = fdiv float %25, %24
  store float %26, ptr %7, align 4, !tbaa !43
  %27 = load ptr, ptr %4, align 8, !tbaa !40
  store ptr %27, ptr %6, align 8, !tbaa !40
  %28 = load i32, ptr %3, align 4, !tbaa !8
  store i32 %28, ptr %5, align 4, !tbaa !8
  br label %29

29:                                               ; preds = %38, %22
  %30 = load i32, ptr %5, align 4, !tbaa !8
  %31 = icmp ne i32 %30, 0
  br i1 %31, label %32, label %41

32:                                               ; preds = %29
  %33 = load float, ptr %7, align 4, !tbaa !43
  %34 = load ptr, ptr %6, align 8, !tbaa !40
  %35 = getelementptr inbounds nuw float, ptr %34, i32 1
  store ptr %35, ptr %6, align 8, !tbaa !40
  %36 = load float, ptr %34, align 4, !tbaa !43
  %37 = fsub float %36, %33
  store float %37, ptr %34, align 4, !tbaa !43
  br label %38

38:                                               ; preds = %32
  %39 = load i32, ptr %5, align 4, !tbaa !8
  %40 = add nsw i32 %39, -1
  store i32 %40, ptr %5, align 4, !tbaa !8
  br label %29, !llvm.loop !77

41:                                               ; preds = %29
  call void @llvm.lifetime.end.p0(i64 4, ptr %7) #8
  call void @llvm.lifetime.end.p0(i64 8, ptr %6) #8
  call void @llvm.lifetime.end.p0(i64 4, ptr %5) #8
  ret void
}