; Function Attrs: nofree norecurse nosync nounwind memory(argmem: readwrite) uwtable
define void @orthog1f(i32 noundef %0, ptr noundef captures(none) %1) local_unnamed_addr #3 {
  %.not17 = icmp eq i32 %0, 0
  br i1 %.not17, label %._crit_edge26, label %.lr.ph

.lr.ph:                                           ; preds = %2, %.lr.ph
  %.020 = phi float [ %5, %.lr.ph ], [ 0.000000e+00, %2 ]
  %.01319 = phi ptr [ %3, %.lr.ph ], [ %1, %2 ]
  %.01418 = phi i32 [ %6, %.lr.ph ], [ %0, %2 ]
  %3 = getelementptr inbounds nuw i8, ptr %.01319, i64 4
  %4 = load float, ptr %.01319, align 4, !tbaa !35
  %5 = fadd float %.020, %4
  %6 = add nsw i32 %.01418, -1
  %.not = icmp eq i32 %6, 0
  br i1 %.not, label %._crit_edge, label %.lr.ph, !llvm.loop !69

._crit_edge:                                      ; preds = %.lr.ph
  %7 = sitofp i32 %0 to float
  %8 = fdiv float %5, %7
  br label %.lr.ph25

.lr.ph25:                                         ; preds = %._crit_edge, %.lr.ph25
  %.123 = phi ptr [ %9, %.lr.ph25 ], [ %1, %._crit_edge ]
  %.11522 = phi i32 [ %12, %.lr.ph25 ], [ %0, %._crit_edge ]
  %9 = getelementptr inbounds nuw i8, ptr %.123, i64 4
  %10 = load float, ptr %.123, align 4, !tbaa !35
  %11 = fsub float %10, %8
  store float %11, ptr %.123, align 4, !tbaa !35
  %12 = add nsw i32 %.11522, -1
  %.not16 = icmp eq i32 %12, 0
  br i1 %.not16, label %._crit_edge26, label %.lr.ph25, !llvm.loop !70

._crit_edge26:                                    ; preds = %.lr.ph25, %2
  ret void
}